; Function Attrs: mustprogress nounwind uwtable
define internal void @_ZN12_GLOBAL__N_111ModelledPHID2Ev(ptr noundef nonnull align 8 dereferenceable(96) %0) unnamed_addr #0 align 2 {
  %2 = getelementptr inbounds nuw i8, ptr %0, i64 48
  %3 = tail call noundef i64 @_ZNK4llvm15SmallVectorBaseIjE4sizeEv(ptr noundef nonnull align 8 dereferenceable(16) %2) #19
  %4 = load ptr, ptr %2, align 8
  %5 = getelementptr inbounds i8, ptr %0, i64 64
  %6 = icmp eq ptr %4, %5
  br i1 %6, label %_ZN4llvm11SmallVectorIPNS_10BasicBlockELj4EED2Ev.exit, label %7

7:                                                ; preds = %1
  tail call void @free(ptr noundef %4) #19
  br label %_ZN4llvm11SmallVectorIPNS_10BasicBlockELj4EED2Ev.exit

_ZN4llvm11SmallVectorIPNS_10BasicBlockELj4EED2Ev.exit: ; preds = %1, %7
  %8 = tail call noundef i64 @_ZNK4llvm15SmallVectorBaseIjE4sizeEv(ptr noundef nonnull align 8 dereferenceable(16) %0) #19
  %9 = load ptr, ptr %0, align 8
  %10 = getelementptr inbounds i8, ptr %0, i64 16
  %11 = icmp eq ptr %9, %10
  br i1 %11, label %_ZN4llvm11SmallVectorIPNS_5ValueELj4EED2Ev.exit, label %12

12:                                               ; preds = %_ZN4llvm11SmallVectorIPNS_10BasicBlockELj4EED2Ev.exit
  tail call void @free(ptr noundef %9) #19
  br label %_ZN4llvm11SmallVectorIPNS_5ValueELj4EED2Ev.exit

_ZN4llvm11SmallVectorIPNS_5ValueELj4EED2Ev.exit:  ; preds = %_ZN4llvm11SmallVectorIPNS_10BasicBlockELj4EED2Ev.exit, %12
  ret void
}